target datalayout = "e-m:e-p270:32:32-p271:32:32-p272:64:64-i64:64-i128:128-f80:128-n8:16:32:64-S128"
target triple = "x86_64-pc-linux-gnu"

%class.TypeOopPtr = type { %class.TypePtr.base, ptr, ptr, ptr, i8, i8, i8, i8, i32 }
%class.TypePtr.base = type <{ %class.Type.base, [4 x i8], ptr, i32, i32, i32 }>
%class.Type.base = type <{ ptr, ptr, i32 }>
%class.TypePtr = type <{ %class.Type.base, [4 x i8], ptr, i32, i32, i32, [4 x i8] }>

@UseInlineDepthForSpeculativeTypes = external global i8, align 1

; Function Attrs: mustprogress nounwind uwtable
define linkonce_odr hidden noundef ptr @_ZNK10TypeOopPtr9const_oopEv(ptr noundef nonnull align 8 dereferenceable(80) %0) #1 comdat align 2 {
  %2 = alloca ptr, align 8
  store ptr %0, ptr %2, align 8
  %3 = load ptr, ptr %2, align 8
  %4 = getelementptr inbounds %class.TypeOopPtr, ptr %3, i32 0, i32 1
  %5 = load ptr, ptr %4, align 8
  ret ptr %5
}

; Function Attrs: mustprogress nounwind uwtable
define hidden noundef ptr @_ZNK11TypeInstPtr17with_inline_depthEi(ptr noundef nonnull align 8 dereferenceable(80) %0, i32 noundef %1) unnamed_addr #1 align 2 {
  %3 = alloca ptr, align 8
  %4 = alloca ptr, align 8
  %5 = alloca i32, align 4
  store ptr %0, ptr %4, align 8
  store i32 %1, ptr %5, align 4
  %6 = load ptr, ptr %4, align 8
  %7 = load i8, ptr @UseInlineDepthForSpeculativeTypes, align 1
  %8 = trunc i8 %7 to i1
  br i1 %8, label %10, label %9

9:                                                ; preds = %2
  store ptr %6, ptr %3, align 8
  br label %32

10:                                               ; preds = %2
  %11 = getelementptr inbounds %class.TypePtr, ptr %6, i32 0, i32 5
  %12 = load i32, ptr %11, align 8
  %13 = load ptr, ptr %6, align 8
  %14 = getelementptr inbounds ptr, ptr %13, i64 29
  %15 = load ptr, ptr %14, align 8
  %16 = call noundef ptr %15(ptr noundef nonnull align 8 dereferenceable(80) %6)
  %17 = getelementptr inbounds %class.TypeOopPtr, ptr %6, i32 0, i32 3
  %18 = load ptr, ptr %17, align 8
  %19 = load ptr, ptr %6, align 8
  %20 = getelementptr inbounds ptr, ptr %19, i64 34
  %21 = load ptr, ptr %20, align 8
  %22 = call noundef zeroext i1 %21(ptr noundef nonnull align 8 dereferenceable(80) %6)
  %23 = call noundef ptr @_ZNK10TypeOopPtr9const_oopEv(ptr noundef nonnull align 8 dereferenceable(80) %6)
  %24 = getelementptr inbounds %class.TypePtr, ptr %6, i32 0, i32 4
  %25 = load i32, ptr %24, align 4
  %26 = getelementptr inbounds %class.TypeOopPtr, ptr %6, i32 0, i32 8
  %27 = load i32, ptr %26, align 4
  %28 = getelementptr inbounds %class.TypePtr, ptr %6, i32 0, i32 2
  %29 = load ptr, ptr %28, align 8
  %30 = load i32, ptr %5, align 4
  %31 = call noundef ptr @_ZN11TypeInstPtr4makeEN7TypePtr3PTREP7ciKlassPK14TypeInterfacesbP8ciObjectiiPKS0_i(i32 noundef %12, ptr noundef %16, ptr noundef %18, i1 noundef zeroext %22, ptr noundef %23, i32 noundef %25, i32 noundef %27, ptr noundef %29, i32 noundef %30)
  store ptr %31, ptr %3, align 8
  br label %32

32:                                               ; preds = %10, %9
  %33 = load ptr, ptr %3, align 8
  ret ptr %33
}