; Function Attrs: mustprogress nounwind uwtable
define hidden noundef ptr @_ZNK11TypeInstPtr17with_inline_depthEi(ptr noundef nonnull align 8 dereferenceable(80) %0, i32 noundef %1) unnamed_addr #0 align 2 {
  %3 = load i8, ptr @UseInlineDepthForSpeculativeTypes, align 1
  %4 = trunc i8 %3 to i1
  br i1 %4, label %5, label %27

5:                                                ; preds = %2
  %6 = getelementptr inbounds i8, ptr %0, i64 40
  %7 = load i32, ptr %6, align 8
  %8 = load ptr, ptr %0, align 8
  %9 = getelementptr inbounds i8, ptr %8, i64 232
  %10 = load ptr, ptr %9, align 8
  %11 = tail call noundef ptr %10(ptr noundef nonnull align 8 dereferenceable(80) %0) #17
  %12 = getelementptr inbounds i8, ptr %0, i64 64
  %13 = load ptr, ptr %12, align 8
  %14 = load ptr, ptr %0, align 8
  %15 = getelementptr inbounds i8, ptr %14, i64 272
  %16 = load ptr, ptr %15, align 8
  %17 = tail call noundef zeroext i1 %16(ptr noundef nonnull align 8 dereferenceable(80) %0) #17
  %18 = getelementptr inbounds i8, ptr %0, i64 48
  %19 = load ptr, ptr %18, align 8
  %20 = getelementptr inbounds i8, ptr %0, i64 36
  %21 = load i32, ptr %20, align 4
  %22 = getelementptr inbounds i8, ptr %0, i64 76
  %23 = load i32, ptr %22, align 4
  %24 = getelementptr inbounds i8, ptr %0, i64 24
  %25 = load ptr, ptr %24, align 8
  %26 = tail call noundef ptr @_ZN11TypeInstPtr4makeEN7TypePtr3PTREP7ciKlassPK14TypeInterfacesbP8ciObjectiiPKS0_i(i32 noundef %7, ptr noundef %11, ptr noundef %13, i1 noundef zeroext %17, ptr noundef %19, i32 noundef %21, i32 noundef %23, ptr noundef %25, i32 noundef %1)
  br label %27

27:                                               ; preds = %2, %5
  %.0 = phi ptr [ %26, %5 ], [ %0, %2 ]
  ret ptr %.0
}